ccopy_reg
_reconstructor
p0
(cnltk.classify.naivebayes
NaiveBayesClassifier
p1
c__builtin__
object
p2
Ntp3
Rp4
(dp5
S'_labels'
p6
(lp7
I01
aI00
asS'_feature_probdist'
p8
(dp9
(I01
S'sent_length'
p10
tp11
g0
(cnltk.probability
ELEProbDist
p12
g2
Ntp13
Rp14
(dp15
S'_gamma'
p16
F0.5
sS'_N'
p17
I38489
sS'_freqdist'
p18
g0
(cnltk.probability
FreqDist
p19
c__builtin__
dict
p20
(dp21
I0
I60
sI1
I57
sI2
I34
sI3
I40
sI4
I91
sI5
I99
sI6
I190
sI7
I320
sI8
I426
sI9
I586
sI10
I747
sI11
I936
sI12
I1140
sI13
I1282
sI14
I1473
sI15
I1494
sI16
I1599
sI17
I1720
sI18
I1726
sI19
I1773
sI20
I1839
sI21
I1697
sI22
I1660
sI23
I1655
sI24
I1518
sI25
I1473
sI26
I1365
sI27
I1213
sI28
I1162
sI29
I983
sI30
I932
sI31
I855
sI32
I816
sI33
I680
sI34
I604
sI35
I526
sI36
I488
sI37
I392
sI38
I382
sI39
I331
sI40
I303
sI41
I226
sI42
I208
sI43
I167
sI44
I154
sI45
I148
sI46
I115
sI47
I97
sI48
I81
sI49
I80
sI50
I60
sI51
I70
sI52
I59
sI53
I47
sI54
I32
sI55
I36
sI56
I37
sI57
I27
sI58
I21
sI59
I21
sI60
I13
sI61
I10
sI62
I16
sI63
I16
sI64
I6
sI65
I13
sI66
I4
sI67
I8
sI68
I5
sI69
I4
sI70
I3
sI71
I3
sI72
I3
sI73
I2
sI74
I3
sI75
I4
sI76
I1
sI77
I5
sI78
I3
sI80
I1
sI81
I1
sI82
I1
sI85
I2
sI91
I1
sI92
I1
sI93
I1
sI95
I2
sI97
I1
sI98
I1
sI102
I1
sI139
I1
stp22
Rp23
(dp24
g17
I38489
sS'_max_cache'
p25
NsS'_item_cache'
p26
NsS'_Nr_cache'
p27
NsbsS'_bins'
p28
I145
sS'_divisor'
p29
F38561.5
sbs(I00
S'bi_text'
p30
tp31
g0
(g12
g2
Ntp32
Rp33
(dp34
g16
F0.5
sg17
I5835
sg18
g0
(g19
g20
(dp35
I0
I5660
sI1
I154
sI2
I20
sI3
I1
stp36
Rp37
(dp38
g17
I5835
sg25
Nsg26
Nsg27
Nsbsg28
I33
sg29
F5851.5
sbs(I00
S'uppercased'
p39
tp40
g0
(g12
g2
Ntp41
Rp42
(dp43
g16
F0.5
sg17
I5835
sg18
g0
(g19
g20
(dp44
I0
I4296
sI1
I1009
sI2
I333
sI3
I123
sI4
I36
sI5
I15
sI6
I7
sI7
I1
sI8
I3
sI9
I2
sI10
I1
sI11
I1
sI12
I1
sI15
I1
sI18
I1
sI19
I2
sI23
I1
sI29
I2
stp45
Rp46
(dp47
g17
I5835
sg25
Nsg26
Nsg27
Nsbsg28
I20
sg29
F5845.0
sbs(I01
g39
tp48
g0
(g12
g2
Ntp49
Rp50
(dp51
g16
F0.5
sg17
I38489
sg18
g0
(g19
g20
(dp52
I0
I31165
sI1
I4975
sI2
I1637
sI3
I446
sI4
I167
sI5
I58
sI6
I23
sI7
I6
sI8
I7
sI9
I2
sI10
I1
sI15
I1
sI20
I1
stp53
Rp54
(dp55
g17
I38489
sg25
Nsg26
Nsg27
Nsbsg28
I20
sg29
F38499.0
sbs(I01
S'uni_text'
p56
tp57
g0
(g12
g2
Ntp58
Rp59
(dp60
g16
F0.5
sg17
I38489
sg18
g0
(g19
g20
(dp61
I10
I1
sI12
I2
sI14
I1
sI15
I1
sI16
I1
sI17
I1
sI18
I8
sI19
I5
sI20
I1
sI21
I4
sI22
I2
sI23
I8
sI24
I2
sI25
I6
sI26
I5
sI27
I6
sI28
I9
sI29
I8
sI30
I4
sI31
I2
sI32
I1
sI33
I4
sI34
I1
sI35
I4
sI36
I3
sI37
I2
sI38
I3
sI39
I2
sI40
I1
sI41
I9
sI42
I5
sI43
I3
sI44
I1
sI45
I4
sI46
I5
sI47
I5
sI48
I6
sI49
I6
sI50
I2
sI51
I6
sI52
I4
sI53
I4
sI54
I2
sI55
I1
sI56
I1
sI57
I1
sI60
I1
sI62
I1
sI64
I1
sI66
I1
sI67
I11
sI68
I1
sI69
I1
sI70
I8
sI71
I2
sI73
I12
sI74
I4
sI75
I2
sI76
I1
sI77
I1
sI78
I4
sI79
I4
sI80
I5
sI81
I1
sI83
I9
sI84
I2
sI85
I4
sI86
I2
sI87
I1
sI89
I12
sI90
I3
sI91
I1
sI92
I3
sI93
I18
sI94
I3
sI95
I6
sI96
I6
sI97
I4
sI98
I19
sI99
I8
sI100
I26
sI101
I4
sI102
I3
sI103
I15
sI104
I6
sI105
I4
sI106
I5
sI108
I1
sI111
I1
sI113
I1
sI121
I13
sI126
I1
sI127
I1
sI128
I1
sI129
I2
sI130
I2
sI131
I1
sI132
I1
sI133
I1
sI134
I16
sI135
I2
sI136
I2
sI138
I1
sI139
I17
sI140
I2
sI141
I1
sI142
I1
sI143
I1
sI144
I2
sI145
I2
sI146
I4
sI148
I1
sI149
I3
sI150
I3
sI151
I15
sI153
I18
sI154
I3
sI155
I1
sI157
I2
sI160
I2
sI161
I2
sI162
I5
sI163
I3
sI164
I3
sI165
I1
sI166
I1
sI167
I5
sI168
I3
sI169
I2
sI170
I4
sI171
I2
sI172
I1
sI173
I5
sI174
I4
sI175
I5
sI176
I3
sI177
I3
sI178
I3
sI179
I4
sI180
I2
sI181
I3
sI182
I1
sI183
I3
sI184
I6
sI185
I1
sI186
I2
sI187
I4
sI188
I1
sI191
I1
sI194
I2
sI195
I1
sI196
I1
sI197
I2
sI198
I2
sI199
I18
sI200
I2
sI202
I1
sI203
I1
sI204
I1
sI208
I2
sI209
I1
sI210
I1
sI211
I3
sI212
I1
sI213
I5
sI214
I6
sI215
I2
sI216
I3
sI217
I3
sI218
I2
sI219
I2
sI220
I4
sI221
I2
sI222
I2
sI224
I1
sI225
I2
sI226
I5
sI227
I3
sI228
I3
sI229
I5
sI230
I18
sI231
I17
sI232
I6
sI233
I5
sI234
I4
sI235
I9
sI236
I13
sI237
I10
sI238
I7
sI239
I9
sI240
I5
sI241
I13
sI242
I10
sI243
I8
sI244
I8
sI245
I7
sI246
I5
sI247
I6
sI248
I1
sI249
I4
sI250
I2
sI251
I4
sI252
I4
sI253
I4
sI254
I4
sI255
I5
sI256
I9
sI257
I11
sI258
I9
sI259
I12
sI260
I3
sI261
I8
sI262
I8
sI263
I4
sI264
I3
sI265
I6
sI266
I1
sI267
I3
sI268
I2
sI269
I5
sI270
I2
sI271
I5
sI272
I5
sI273
I6
sI274
I10
sI275
I6
sI276
I8
sI277
I7
sI278
I13
sI279
I12
sI280
I12
sI281
I7
sI282
I10
sI283
I5
sI284
I7
sI285
I7
sI287
I3
sI288
I3
sI289
I1
sI290
I11
sI291
I7
sI292
I14
sI293
I11
sI294
I11
sI295
I4
sI296
I4
sI297
I4
sI299
I4
sI300
I6
sI301
I7
sI302
I4
sI303
I6
sI304
I6
sI305
I7
sI306
I12
sI307
I13
sI308
I13
sI309
I12
sI310
I16
sI311
I12
sI312
I8
sI313
I9
sI314
I3
sI315
I2
sI316
I6
sI317
I11
sI318
I4
sI319
I9
sI320
I10
sI321
I8
sI322
I9
sI323
I9
sI324
I11
sI325
I6
sI326
I2
sI327
I4
sI328
I9
sI329
I5
sI330
I7
sI331
I19
sI332
I24
sI333
I18
sI334
I17
sI335
I22
sI336
I17
sI337
I9
sI338
I13
sI339
I7
sI340
I11
sI341
I10
sI342
I11
sI343
I19
sI344
I16
sI345
I13
sI346
I18
sI347
I13
sI348
I13
sI349
I16
sI350
I14
sI351
I13
sI352
I8
sI353
I8
sI354
I9
sI355
I13
sI356
I9
sI357
I4
sI358
I5
sI359
I6
sI360
I9
sI361
I5
sI362
I13
sI363
I14
sI364
I8
sI365
I6
sI366
I10
sI367
I8
sI368
I10
sI369
I17
sI370
I19
sI371
I18
sI372
I22
sI373
I16
sI374
I19
sI375
I14
sI376
I15
sI377
I21
sI378
I21
sI379
I17
sI380
I27
sI381
I25
sI382
I11
sI383
I11
sI384
I5
sI385
I7
sI386
I10
sI387
I11
sI388
I13
sI389
I11
sI390
I14
sI391
I12
sI392
I14
sI393
I16
sI394
I21
sI395
I13
sI396
I17
sI397
I27
sI398
I18
sI399
I15
sI400
I10
sI401
I10
sI402
I13
sI403
I4
sI404
I20
sI405
I21
sI406
I17
sI407
I31
sI408
I28
sI409
I16
sI410
I19
sI411
I18
sI412
I33
sI413
I30
sI414
I30
sI415
I23
sI416
I16
sI417
I14
sI418
I17
sI419
I13
sI420
I18
sI421
I19
sI422
I21
sI423
I22
sI424
I26
sI425
I17
sI426
I19
sI427
I19
sI428
I22
sI429
I41
sI430
I24
sI431
I14
sI432
I7
sI433
I26
sI434
I24
sI435
I16
sI436
I24
sI437
I24
sI438
I19
sI439
I22
sI440
I21
sI441
I21
sI442
I16
sI443
I22
sI444
I16
sI445
I19
sI446
I16
sI447
I4
sI448
I8
sI449
I10
sI450
I6
sI451
I13
sI452
I21
sI453
I13
sI454
I13
sI455
I22
sI456
I27
sI457
I27
sI458
I35
sI459
I18
sI460
I25
sI461
I23
sI462
I18
sI463
I16
sI464
I23
sI465
I24
sI466
I26
sI467
I26
sI468
I28
sI469
I21
sI470
I28
sI471
I25
sI472
I42
sI473
I15
sI474
I31
sI475
I31
sI476
I9
sI477
I16
sI478
I31
sI479
I23
sI480
I31
sI481
I30
sI482
I26
sI483
I37
sI484
I37
sI485
I35
sI486
I42
sI487
I36
sI488
I36
sI489
I34
sI490
I30
sI491
I29
sI492
I12
sI493
I23
sI494
I14
sI495
I24
sI496
I36
sI497
I25
sI498
I26
sI499
I27
sI500
I15
sI501
I15
sI502
I41
sI503
I44
sI504
I34
sI505
I34
sI506
I21
sI507
I25
sI508
I25
sI509
I26
sI510
I18
sI511
I35
sI512
I36
sI513
I40
sI514
I68
sI515
I37
sI516
I29
sI517
I26
sI518
I23
sI519
I21
sI520
I15
sI521
I28
sI522
I22
sI523
I25
sI524
I24
sI525
I20
sI526
I20
sI527
I12
sI528
I13
sI529
I36
sI530
I42
sI531
I38
sI532
I24
sI533
I42
sI534
I32
sI535
I32
sI536
I24
sI537
I33
sI538
I41
sI539
I50
sI540
I52
sI541
I48
sI542
I46
sI543
I43
sI544
I42
sI545
I37
sI546
I21
sI547
I17
sI548
I27
sI549
I38
sI550
I39
sI551
I33
sI552
I34
sI553
I29
sI554
I28
sI555
I35
sI556
I43
sI557
I38
sI558
I34
sI559
I25
sI560
I34
sI561
I32
sI562
I38
sI563
I33
sI564
I28
sI565
I33
sI566
I28
sI567
I22
sI568
I17
sI569
I22
sI570
I29
sI571
I30
sI572
I36
sI573
I23
sI574
I16
sI575
I16
sI576
I22
sI577
I31
sI578
I26
sI579
I28
sI580
I42
sI581
I25
sI582
I40
sI583
I35
sI584
I41
sI585
I38
sI586
I32
sI587
I33
sI588
I38
sI589
I29
sI590
I42
sI591
I31
sI592
I52
sI593
I71
sI594
I45
sI595
I35
sI596
I34
sI597
I27
sI598
I31
sI599
I28
sI600
I30
sI601
I39
sI602
I59
sI603
I40
sI604
I44
sI605
I36
sI606
I27
sI607
I22
sI608
I30
sI609
I35
sI610
I36
sI611
I50
sI612
I32
sI613
I37
sI614
I43
sI615
I27
sI616
I30
sI617
I40
sI618
I28
sI619
I40
sI620
I32
sI621
I39
sI622
I52
sI623
I29
sI624
I20
sI625
I37
sI626
I33
sI627
I33
sI628
I38
sI629
I40
sI630
I49
sI631
I30
sI632
I31
sI633
I24
sI634
I39
sI635
I42
sI636
I27
sI637
I37
sI638
I45
sI639
I50
sI640
I30
sI641
I50
sI642
I43
sI643
I41
sI644
I49
sI645
I51
sI646
I51
sI647
I38
sI648
I52
sI649
I28
sI650
I28
sI651
I32
sI652
I41
sI653
I35
sI654
I33
sI655
I47
sI656
I62
sI657
I68
sI658
I58
sI659
I60
sI660
I55
sI661
I59
sI662
I46
sI663
I28
sI664
I47
sI665
I33
sI666
I32
sI667
I38
sI668
I32
sI669
I47
sI670
I42
sI671
I68
sI672
I43
sI673
I46
sI674
I33
sI675
I31
sI676
I43
sI677
I23
sI678
I33
sI679
I30
sI680
I22
sI681
I18
sI682
I28
sI683
I24
sI684
I36
sI685
I45
sI686
I44
sI687
I38
sI688
I57
sI689
I43
sI690
I40
sI691
I43
sI692
I39
sI693
I30
sI694
I42
sI695
I38
sI696
I41
sI697
I43
sI698
I71
sI699
I47
sI700
I55
sI701
I59
sI702
I48
sI703
I48
sI704
I44
sI705
I43
sI706
I37
sI707
I41
sI708
I41
sI709
I91
sI710
I68
sI711
I66
sI712
I61
sI713
I44
sI714
I47
sI715
I40
sI716
I43
sI717
I56
sI718
I59
sI719
I60
sI720
I53
sI721
I45
sI722
I54
sI723
I53
sI724
I49
sI725
I54
sI726
I48
sI727
I45
sI728
I40
sI729
I40
sI730
I45
sI731
I29
sI732
I25
sI733
I34
sI734
I35
sI735
I38
sI736
I31
sI737
I37
sI738
I34
sI739
I26
sI740
I39
sI741
I35
sI742
I35
sI743
I42
sI744
I50
sI745
I46
sI746
I55
sI747
I53
sI748
I42
sI749
I50
sI750
I58
sI751
I36
sI752
I32
sI753
I33
sI754
I28
sI755
I53
sI756
I47
sI757
I55
sI758
I33
sI759
I38
sI760
I34
sI761
I44
sI762
I54
sI763
I47
sI764
I41
sI765
I45
sI766
I45
sI767
I32
sI768
I37
sI769
I36
sI770
I35
sI771
I45
sI772
I43
sI773
I40
sI774
I34
sI775
I28
sI776
I25
sI777
I23
sI778
I30
sI779
I60
sI780
I58
sI781
I58
sI782
I61
sI783
I55
sI784
I44
sI785
I36
sI786
I42
sI787
I55
sI788
I62
sI789
I94
sI790
I47
sI791
I37
sI792
I42
sI793
I47
sI794
I36
sI795
I28
sI796
I22
sI797
I23
sI798
I34
sI799
I65
sI800
I60
sI801
I54
sI802
I65
sI803
I45
sI804
I29
sI805
I24
sI806
I26
sI807
I25
sI808
I40
sI809
I45
sI810
I40
sI811
I44
sI812
I50
sI813
I63
sI814
I59
sI815
I43
sI816
I48
sI817
I40
sI818
I47
sI819
I46
sI820
I42
sI821
I49
sI822
I56
sI823
I36
sI824
I55
sI825
I42
sI826
I45
sI827
I35
sI828
I26
sI829
I23
sI830
I10
sI831
I11
sI832
I19
sI833
I45
sI834
I45
sI835
I29
sI836
I42
sI837
I28
sI838
I39
sI839
I50
sI840
I44
sI841
I56
sI842
I48
sI843
I56
sI844
I38
sI845
I27
sI846
I29
sI847
I31
sI848
I39
sI849
I32
sI850
I36
sI851
I33
sI852
I52
sI853
I28
sI854
I45
sI855
I31
sI856
I31
sI857
I30
sI858
I42
sI859
I37
sI860
I37
sI861
I40
sI862
I48
sI863
I43
sI864
I53
sI865
I43
sI866
I38
sI867
I50
sI868
I34
sI869
I38
sI870
I46
sI871
I36
sI872
I41
sI873
I45
sI874
I33
sI875
I24
sI876
I33
sI877
I33
sI878
I32
sI879
I28
sI880
I22
sI881
I20
sI882
I34
sI883
I41
sI884
I47
sI885
I51
sI886
I39
sI887
I35
sI888
I45
sI889
I29
sI890
I29
sI891
I44
sI892
I50
sI893
I42
sI894
I48
sI895
I24
sI896
I38
sI897
I25
sI898
I21
sI899
I15
sI900
I13
sI901
I27
sI902
I22
sI903
I30
sI904
I31
sI905
I43
sI906
I32
sI907
I42
sI908
I50
sI909
I48
sI910
I40
sI911
I41
sI912
I43
sI913
I41
sI914
I47
sI915
I45
sI916
I36
sI917
I31
sI918
I55
sI919
I54
sI920
I34
sI921
I41
sI922
I38
sI923
I38
sI924
I30
sI925
I43
sI926
I39
sI927
I35
sI928
I46
sI929
I43
sI930
I32
sI931
I35
sI932
I41
sI933
I20
sI934
I32
sI935
I20
sI936
I15
sI937
I28
sI938
I15
sI939
I20
sI940
I14
sI941
I21
sI942
I17
sI943
I11
sI944
I6
sI945
I10
sI946
I12
sI947
I11
sI948
I12
sI949
I20
sI950
I28
sI951
I42
sI952
I39
sI953
I31
sI954
I59
sI955
I56
sI956
I76
sI957
I52
sI958
I55
sI959
I55
sI960
I48
sI961
I43
sI962
I21
sI963
I27
sI964
I37
sI965
I51
sI966
I55
sI967
I52
sI968
I36
sI969
I36
sI970
I35
sI971
I28
sI972
I33
sI973
I28
sI974
I20
sI975
I37
sI976
I33
sI977
I38
sI978
I30
sI979
I24
sI980
I36
sI981
I40
sI982
I40
sI983
I34
sI984
I52
sI985
I39
sI986
I36
sI987
I19
sI988
I38
sI989
I27
sI990
I13
sI991
I27
sI992
I39
sI993
I30
sI994
I28
sI995
I17
sI996
I27
sI997
I31
sI998
I70
sI999
I36
sI1000
I25
sI1001
I23
sI1002
I29
sI1003
I17
sI1004
I33
sI1005
I42
sI1006
I51
sI1007
I52
sI1008
I58
sI1009
I44
sI1010
I50
sI1011
I49
sI1012
I38
sI1013
I43
sI1014
I25
sI1015
I25
sI1016
I22
sI1017
I16
sI1018
I23
sI1019
I11
sI1020
I18
sI1021
I37
sI1022
I23
sI1023
I29
sI1024
I29
sI1025
I17
sI1026
I18
sI1027
I21
sI1028
I22
sI1029
I32
sI1030
I14
sI1031
I11
sI1032
I13
sI1033
I9
sI1034
I34
sI1035
I16
sI1036
I18
sI1037
I25
sI1038
I20
sI1039
I26
sI1040
I32
sI1041
I33
sI1042
I48
sI1043
I36
sI1044
I24
sI1045
I27
sI1046
I13
sI1047
I31
sI1048
I25
sI1049
I28
sI1050
I13
sI1051
I16
sI1052
I17
sI1053
I20
sI1054
I15
sI1055
I11
sI1056
I11
sI1057
I22
sI1058
I24
sI1059
I31
sI1060
I26
sI1061
I25
sI1062
I41
sI1063
I28
sI1064
I41
sI1065
I44
sI1066
I28
sI1067
I17
sI1068
I18
sI1069
I20
sI1070
I22
sI1071
I33
sI1072
I20
sI1073
I27
sI1074
I17
sI1075
I23
sI1076
I30
sI1077
I45
sI1078
I55
sI1079
I43
sI1080
I24
sI1081
I31
sI1082
I19
sI1083
I21
sI1084
I28
sI1085
I35
sI1086
I31
sI1087
I42
sI1088
I55
sI1089
I49
sI1090
I42
sI1091
I16
sI1092
I28
sI1093
I29
sI1094
I32
sI1095
I16
sI1096
I25
sI1097
I22
sI1098
I49
sI1099
I42
sI1100
I51
sI1101
I33
sI1102
I33
sI1103
I20
sI1104
I18
sI1105
I28
sI1106
I62
sI1107
I56
sI1108
I34
sI1109
I26
sI1110
I45
sI1111
I48
sI1112
I40
sI1113
I44
sI1114
I31
sI1115
I24
sI1116
I43
sI1117
I40
sI1118
I32
sI1119
I28
sI1120
I39
sI1121
I35
sI1122
I29
sI1123
I13
sI1124
I18
sI1125
I46
sI1126
I24
sI1127
I40
sI1128
I35
sI1129
I30
sI1130
I37
sI1131
I17
sI1132
I21
sI1133
I9
sI1134
I6
sI1135
I19
sI1136
I19
sI1137
I25
sI1138
I24
sI1139
I26
sI1140
I22
sI1141
I36
sI1142
I57
sI1143
I38
sI1144
I43
sI1145
I37
sI1146
I35
sI1147
I13
sI1148
I20
sI1149
I39
sI1150
I17
sI1151
I23
sI1152
I38
sI1153
I29
sI1154
I28
sI1155
I27
sI1156
I15
sI1157
I17
sI1158
I17
sI1159
I23
sI1160
I16
sI1161
I20
sI1162
I14
sI1163
I24
sI1164
I44
sI1165
I24
sI1166
I21
sI1167
I24
sI1168
I33
sI1169
I17
sI1170
I57
sI1171
I32
sI1172
I15
sI1173
I21
sI1174
I17
sI1175
I28
sI1176
I21
sI1177
I14
sI1178
I21
sI1179
I30
sI1180
I17
sI1181
I31
sI1182
I29
sI1183
I29
sI1184
I26
sI1185
I35
sI1186
I18
sI1187
I22
sI1188
I14
sI1189
I12
sI1190
I11
sI1191
I13
sI1192
I7
sI1193
I17
sI1194
I16
sI1195
I14
sI1196
I29
sI1197
I37
sI1198
I27
sI1199
I41
sI1200
I30
sI1201
I30
sI1202
I30
sI1203
I17
sI1204
I23
sI1205
I22
sI1206
I28
sI1207
I19
sI1208
I12
sI1209
I20
sI1210
I32
sI1211
I27
sI1212
I24
sI1213
I20
sI1214
I31
sI1215
I32
sI1216
I24
sI1217
I14
sI1218
I13
sI1219
I11
sI1220
I5
sI1221
I13
sI1222
I14
sI1223
I22
sI1224
I24
sI1225
I21
sI1226
I21
sI1227
I17
sI1228
I31
sI1229
I33
sI1230
I21
sI1231
I20
sI1232
I19
sI1233
I22
sI1234
I10
sI1235
I5
sI1236
I8
sI1237
I33
sI1238
I34
sI1239
I48
sI1240
I24
sI1241
I29
sI1242
I7
sI1243
I24
sI1244
I30
sI1245
I17
sI1246
I26
sI1247
I41
sI1248
I23
sI1249
I22
sI1250
I19
sI1251
I29
sI1252
I25
sI1253
I26
sI1254
I35
sI1255
I37
sI1256
I27
sI1257
I20
sI1258
I20
sI1259
I16
sI1260
I7
sI1261
I17
sI1262
I19
sI1263
I25
sI1264
I60
sI1265
I28
sI1266
I34
sI1267
I17
sI1268
I11
sI1269
I22
sI1270
I22
sI1271
I58
sI1272
I47
sI1273
I39
sI1274
I24
sI1275
I24
sI1276
I33
sI1277
I30
sI1278
I36
sI1279
I26
sI1280
I38
sI1281
I35
sI1282
I32
sI1283
I37
sI1284
I29
sI1285
I23
sI1286
I15
sI1287
I13
sI1288
I32
sI1289
I13
sI1290
I15
sI1291
I32
sI1292
I31
sI1293
I40
sI1294
I35
sI1295
I33
sI1296
I50
sI1297
I36
sI1298
I23
sI1299
I29
sI1300
I37
sI1301
I35
sI1302
I30
sI1303
I14
sI1304
I14
sI1305
I20
sI1306
I12
sI1307
I6
sI1308
I5
sI1309
I2
sI1311
I8
sI1312
I4
sI1313
I3
sI1314
I8
sI1315
I14
sI1316
I18
sI1317
I23
sI1318
I23
sI1319
I18
sI1320
I21
sI1321
I30
sI1322
I20
sI1323
I11
sI1324
I16
sI1325
I27
sI1326
I32
sI1327
I39
sI1328
I25
sI1329
I10
sI1330
I11
sI1331
I14
sI1332
I18
sI1333
I18
sI1334
I13
sI1335
I32
sI1336
I19
sI1337
I20
sI1338
I18
sI1339
I21
sI1340
I17
sI1341
I8
sI1342
I7
sI1343
I12
sI1344
I16
sI1345
I25
sI1346
I38
sI1347
I38
sI1348
I22
sI1349
I43
sI1350
I32
sI1351
I18
sI1352
I15
sI1353
I22
sI1354
I14
sI1355
I19
sI1356
I9
sI1357
I12
sI1358
I12
sI1359
I20
sI1360
I27
sI1361
I13
sI1362
I8
sI1364
I14
sI1365
I7
sI1366
I8
sI1367
I9
sI1368
I8
sI1369
I16
sI1370
I15
sI1371
I5
sI1372
I5
sI1373
I12
sI1374
I25
sI1375
I10
sI1376
I19
sI1377
I14
sI1378
I14
sI1379
I12
sI1380
I14
sI1381
I10
sI1382
I11
sI1383
I31
sI1384
I29
sI1385
I20
sI1386
I20
sI1387
I27
sI1388
I14
sI1389
I11
sI1390
I26
sI1391
I13
sI1392
I14
sI1393
I17
sI1394
I14
sI1395
I24
sI1396
I24
sI1397
I20
sI1398
I23
sI1399
I22
sI1400
I11
sI1401
I12
sI1402
I13
sI1403
I1
sI1404
I1
sI1405
I6
sI1406
I7
sI1407
I14
sI1408
I42
sI1409
I43
sI1410
I30
sI1411
I17
sI1412
I10
sI1413
I8
sI1414
I9
sI1415
I11
sI1416
I19
sI1417
I15
sI1418
I20
sI1419
I12
sI1420
I8
sI1421
I4
sI1422
I11
sI1423
I25
sI1424
I8
sI1425
I11
sI1426
I27
sI1427
I16
sI1428
I18
sI1429
I27
sI1430
I16
sI1431
I21
sI1432
I19
sI1433
I13
sI1434
I6
sI1435
I9
sI1436
I15
sI1437
I12
sI1438
I8
sI1439
I11
sI1440
I16
sI1441
I25
sI1442
I10
sI1443
I11
sI1444
I17
sI1445
I13
sI1446
I15
sI1447
I28
sI1448
I21
sI1449
I11
sI1450
I3
sI1451
I4
sI1454
I6
sI1455
I2
sI1457
I17
sI1458
I18
sI1459
I17
sI1460
I27
sI1461
I27
sI1462
I16
sI1463
I24
sI1464
I18
sI1465
I7
sI1466
I28
sI1467
I17
sI1468
I13
sI1469
I10
sI1470
I12
sI1471
I4
sI1472
I5
sI1473
I11
sI1474
I19
sI1475
I19
sI1476
I12
sI1477
I15
sI1478
I19
sI1479
I13
sI1480
I6
sI1481
I3
sI1482
I15
sI1483
I28
sI1484
I20
sI1485
I21
sI1486
I8
sI1487
I9
sI1488
I19
sI1489
I27
sI1490
I17
sI1491
I7
sI1492
I2
sI1493
I16
sI1494
I16
sI1495
I9
sI1496
I7
sI1497
I14
sI1498
I7
sI1499
I14
sI1500
I13
sI1501
I3
sI1502
I2
sI1503
I3
sI1504
I2
sI1505
I12
sI1506
I25
sI1507
I8
sI1508
I6
sI1509
I5
sI1510
I7
sI1511
I6
sI1512
I34
sI1513
I30
sI1514
I8
sI1515
I9
sI1516
I11
sI1517
I12
sI1518
I9
sI1519
I9
sI1520
I23
sI1521
I32
sI1522
I24
sI1523
I21
sI1524
I11
sI1525
I14
sI1526
I17
sI1527
I8
sI1528
I9
sI1529
I6
sI1530
I6
sI1531
I11
sI1532
I10
sI1533
I10
sI1534
I27
sI1535
I21
sI1536
I12
sI1537
I11
sI1538
I6
sI1539
I16
sI1540
I15
sI1541
I17
sI1542
I13
sI1543
I7
sI1544
I7
sI1545
I9
sI1546
I10
sI1547
I6
sI1548
I5
sI1549
I1
sI1550
I1
sI1551
I1
sI1552
I8
sI1553
I4
sI1554
I26
sI1555
I25
sI1556
I14
sI1557
I13
sI1558
I2
sI1559
I1
sI1560
I7
sI1561
I7
sI1562
I4
sI1563
I3
sI1564
I5
sI1565
I3
sI1566
I8
sI1567
I29
sI1568
I29
sI1569
I12
sI1570
I16
sI1571
I13
sI1572
I11
sI1573
I28
sI1574
I21
sI1575
I12
sI1576
I20
sI1577
I11
sI1578
I10
sI1579
I3
sI1580
I6
sI1581
I5
sI1582
I10
sI1583
I13
sI1584
I17
sI1585
I17
sI1586
I10
sI1587
I11
sI1588
I10
sI1589
I13
sI1590
I4
sI1591
I4
sI1592
I3
sI1595
I3
sI1596
I4
sI1597
I11
sI1598
I22
sI1599
I23
sI1600
I13
sI1601
I12
sI1602
I22
sI1603
I19
sI1604
I9
sI1605
I8
sI1606
I4
sI1607
I4
sI1608
I4
sI1609
I2
sI1610
I4
sI1611
I5
sI1612
I3
sI1613
I5
sI1614
I4
sI1615
I10
sI1616
I10
sI1617
I2
sI1618
I17
sI1619
I15
sI1620
I12
sI1621
I6
sI1622
I3
sI1623
I1
sI1626
I5
sI1627
I3
sI1629
I3
sI1630
I4
sI1631
I7
sI1632
I10
sI1633
I12
sI1634
I4
sI1636
I1
sI1637
I9
sI1638
I6
sI1639
I8
sI1640
I8
sI1641
I1
sI1642
I4
sI1643
I2
sI1644
I5
sI1645
I14
sI1646
I8
sI1647
I9
sI1648
I12
sI1649
I10
sI1650
I11
sI1651
I21
sI1652
I13
sI1653
I7
sI1654
I6
sI1655
I5
sI1656
I6
sI1657
I5
sI1658
I21
sI1659
I15
sI1660
I10
sI1661
I4
sI1662
I25
sI1663
I23
sI1664
I19
sI1665
I8
sI1666
I4
sI1667
I4
sI1668
I8
sI1669
I2
sI1670
I11
sI1671
I5
sI1672
I2
sI1673
I1
sI1674
I1
sI1676
I4
sI1677
I1
sI1678
I1
sI1679
I3
sI1680
I5
sI1681
I4
sI1683
I2
sI1685
I3
sI1688
I1
sI1694
I8
sI1695
I6
sI1696
I3
sI1697
I10
sI1698
I4
sI1699
I8
sI1700
I6
sI1702
I3
sI1703
I13
sI1704
I18
sI1705
I8
sI1706
I5
sI1707
I5
sI1708
I11
sI1709
I6
sI1710
I5
sI1711
I5
sI1712
I6
sI1713
I6
sI1714
I1
sI1715
I4
sI1716
I2
sI1717
I9
sI1718
I4
sI1719
I2
sI1720
I12
sI1721
I16
sI1722
I11
sI1723
I12
sI1724
I10
sI1725
I8
sI1726
I3
sI1727
I3
sI1728
I1
sI1729
I4
sI1730
I5
sI1731
I3
sI1733
I1
sI1734
I5
sI1735
I12
sI1736
I14
sI1737
I5
sI1738
I9
sI1739
I2
sI1741
I4
sI1742
I2
sI1743
I2
sI1746
I3
sI1747
I8
sI1748
I7
sI1749
I3
sI1750
I1
sI1751
I9
sI1752
I6
sI1753
I11
sI1754
I5
sI1755
I1
sI1756
I6
sI1757
I2
sI1758
I4
sI1759
I11
sI1760
I9
sI1761
I3
sI1762
I13
sI1763
I13
sI1764
I15
sI1765
I9
sI1766
I21
sI1767
I16
sI1768
I13
sI1769
I11
sI1770
I6
sI1771
I4
sI1772
I4
sI1773
I1
sI1774
I1
sI1775
I4
sI1778
I9
sI1779
I3
sI1780
I4
sI1781
I9
sI1782
I4
sI1783
I2
sI1784
I5
sI1785
I9
sI1786
I2
sI1787
I4
sI1788
I2
sI1789
I4
sI1793
I8
sI1794
I8
sI1795
I11
sI1796
I10
sI1797
I3
sI1798
I2
sI1806
I6
sI1807
I2
sI1808
I16
sI1809
I5
sI1810
I7
sI1811
I6
sI1812
I7
sI1813
I7
sI1814
I6
sI1815
I8
sI1816
I11
sI1817
I4
sI1818
I2
sI1819
I6
sI1820
I12
sI1821
I8
sI1822
I2
sI1823
I5
sI1824
I3
sI1825
I2
sI1826
I7
sI1827
I10
sI1828
I6
sI1830
I9
sI1831
I3
sI1832
I3
sI1836
I9
sI1837
I18
sI1838
I22
sI1839
I9
sI1840
I5
sI1842
I1
sI1843
I7
sI1845
I3
sI1847
I15
sI1848
I3
sI1849
I5
sI1850
I4
sI1851
I2
sI1853
I3
sI1855
I7
sI1856
I4
sI1857
I5
sI1858
I3
sI1859
I6
sI1860
I7
sI1861
I8
sI1862
I3
sI1863
I1
sI1864
I10
sI1865
I9
sI1866
I6
sI1867
I11
sI1868
I2
sI1869
I3
sI1880
I7
sI1881
I7
sI1882
I4
sI1884
I7
sI1885
I5
sI1886
I10
sI1887
I8
sI1888
I12
sI1889
I7
sI1890
I18
sI1891
I9
sI1892
I6
sI1893
I3
sI1894
I6
sI1895
I7
sI1896
I6
sI1899
I1
sI1910
I9
sI1911
I4
sI1912
I5
sI1913
I10
sI1914
I7
sI1915
I3
sI1916
I8
sI1918
I5
sI1919
I12
sI1920
I7
sI1921
I3
sI1922
I1
sI1923
I2
sI1924
I1
sI1926
I6
sI1927
I1
sI1928
I4
sI1929
I2
sI1930
I1
sI1932
I1
sI1936
I10
sI1937
I6
sI1938
I3
sI1939
I1
sI1940
I1
sI1949
I6
sI1950
I7
sI1951
I5
sI1952
I8
sI1953
I2
sI1954
I2
sI1955
I1
sI1956
I1
sI1962
I9
sI1963
I17
sI1964
I19
sI1965
I4
sI1966
I4
sI1967
I4
sI1972
I1
sI1973
I11
sI1974
I14
sI1975
I9
sI1976
I15
sI1977
I9
sI1978
I7
sI1979
I4
sI1980
I11
sI1981
I7
sI1982
I6
sI1985
I9
sI1986
I4
sI1988
I1
sI1991
I15
sI1992
I8
sI1993
I7
sI1994
I1
sI1995
I2
sI1996
I1
sI1999
I8
sI2000
I11
sI2001
I10
sI2002
I3
sI2003
I1
sI2005
I4
sI2006
I5
sI2007
I5
sI2009
I1
sI2010
I9
sI2011
I3
sI2012
I2
sI2013
I8
sI2014
I5
sI2015
I4
sI2016
I1
sI2017
I1
sI2018
I2
sI2022
I1
sI2023
I4
sI2024
I2
sI2025
I1
sI2026
I1
sI2027
I1
sI2035
I11
sI2036
I9
sI2037
I7
sI2038
I6
sI2039
I10
sI2040
I12
sI2041
I7
sI2042
I1
sI2043
I7
sI2044
I5
sI2045
I1
sI2046
I1
sI2069
I10
sI2070
I2
sI2071
I2
sI2073
I1
sI2074
I11
sI2075
I14
sI2076
I9
sI2077
I4
sI2078
I1
sI2080
I5
sI2081
I7
sI2082
I7
sI2083
I1
sI2095
I11
sI2096
I7
sI2097
I3
sI2098
I1
sI2103
I3
sI2104
I7
sI2105
I2
sI2108
I9
sI2109
I4
sI2110
I2
sI2113
I1
sI2118
I11
sI2119
I7
sI2120
I1
sI2121
I1
sI2122
I1
sI2125
I1
sI2158
I5
sI2159
I4
sI2160
I5
sI2161
I2
sI2163
I1
sI2169
I3
sI2170
I5
sI2171
I5
sI2172
I3
sI2173
I7
sI2174
I4
sI2175
I3
sI2176
I1
sI2179
I1
sI2193
I10
sI2194
I3
sI2195
I5
sI2196
I1
sI2197
I1
sI2209
I4
sI2210
I3
sI2211
I16
sI2212
I1
sI2213
I3
sI2214
I2
sI2235
I13
sI2236
I2
sI2237
I1
sI2238
I1
sI2239
I1
sI2242
I1
sI2270
I9
sI2271
I4
sI2272
I2
sI2273
I2
sI2275
I1
sI2323
I11
sI2324
I6
sI2325
I3
sI2326
I1
sI2340
I12
sI2341
I6
sI2342
I2
sI2344
I1
sI2410
I2
sI2411
I5
sI2412
I3
sI2413
I2
sI2414
I1
sI2415
I1
sI2416
I1
sI2434
I5
sI2435
I8
sI2436
I2
sI2439
I3
sI2442
I1
sI2491
I6
sI2492
I9
sI2493
I2
sI2494
I2
sI2496
I1
sI2571
I6
sI2572
I8
sI2573
I5
sI2575
I1
sI2577
I1
sI2699
I12
sI2700
I3
sI2701
I5
sI2702
I1
stp62
Rp63
(dp64
g17
I38489
sg25
Nsg26
Nsg27
Nsbsg28
I2049
sg29
F39513.5
sbs(I01
S'uni_title'
p65
tp66
g0
(g12
g2
Ntp67
Rp68
(dp69
g16
F0.5
sg17
I38489
sg18
g0
(g19
g20
(dp70
I0
I17207
sI1
I11817
sI2
I5316
sI3
I2204
sI4
I990
sI5
I442
sI6
I246
sI7
I125
sI8
I79
sI9
I30
sI10
I14
sI11
I8
sI12
I3
sI13
I6
sI14
I1
sI15
I1
stp71
Rp72
(dp73
g17
I38489
sg25
Nsg26
Nsg27
Nsbsg28
I17
sg29
F38497.5
sbs(I00
g56
tp74
g0
(g12
g2
Ntp75
Rp76
(dp77
g16
F0.5
sg17
I5835
sg18
g0
(g19
g20
(dp78
I10
I1
sI12
I2
sI13
I1
sI15
I1
sI18
I1
sI19
I1
sI20
I2
sI22
I1
sI23
I1
sI24
I1
sI26
I1
sI28
I1
sI29
I1
sI32
I1
sI33
I1
sI42
I1
sI43
I2
sI45
I1
sI46
I1
sI49
I1
sI51
I1
sI54
I1
sI56
I1
sI57
I1
sI68
I1
sI71
I1
sI73
I1
sI76
I1
sI79
I2
sI80
I2
sI81
I1
sI83
I1
sI84
I2
sI86
I2
sI88
I1
sI90
I1
sI91
I1
sI94
I1
sI95
I1
sI97
I1
sI100
I1
sI101
I1
sI102
I4
sI103
I2
sI104
I2
sI105
I2
sI106
I1
sI107
I1
sI109
I1
sI111
I1
sI120
I1
sI130
I2
sI135
I1
sI140
I1
sI141
I1
sI144
I4
sI146
I1
sI148
I1
sI149
I1
sI150
I2
sI152
I2
sI153
I2
sI154
I1
sI156
I1
sI160
I1
sI161
I1
sI163
I1
sI164
I1
sI168
I1
sI169
I1
sI173
I1
sI174
I1
sI177
I1
sI178
I1
sI180
I1
sI181
I3
sI183
I1
sI184
I1
sI196
I1
sI201
I1
sI202
I1
sI205
I1
sI211
I1
sI212
I1
sI214
I2
sI217
I1
sI218
I2
sI219
I1
sI221
I1
sI224
I1
sI226
I1
sI229
I2
sI231
I4
sI232
I2
sI233
I2
sI234
I2
sI235
I4
sI236
I2
sI237
I1
sI240
I1
sI242
I1
sI243
I2
sI246
I1
sI247
I1
sI248
I1
sI252
I1
sI254
I1
sI256
I1
sI257
I2
sI259
I3
sI261
I4
sI262
I1
sI263
I2
sI264
I2
sI265
I2
sI266
I1
sI267
I1
sI268
I1
sI270
I1
sI271
I1
sI273
I1
sI276
I4
sI277
I1
sI278
I2
sI279
I2
sI280
I1
sI282
I5
sI283
I2
sI284
I1
sI286
I1
sI287
I2
sI289
I1
sI290
I1
sI291
I1
sI292
I2
sI294
I1
sI295
I1
sI296
I2
sI298
I4
sI299
I1
sI301
I2
sI302
I1
sI303
I2
sI304
I2
sI305
I2
sI306
I2
sI307
I1
sI308
I1
sI309
I3
sI310
I2
sI311
I1
sI312
I1
sI313
I1
sI315
I1
sI316
I1
sI318
I2
sI319
I1
sI320
I4
sI321
I2
sI322
I2
sI323
I2
sI324
I1
sI325
I3
sI326
I2
sI328
I2
sI329
I2
sI330
I4
sI331
I3
sI332
I2
sI333
I3
sI334
I3
sI335
I1
sI336
I3
sI338
I4
sI339
I1
sI340
I1
sI341
I5
sI342
I4
sI343
I5
sI344
I1
sI345
I1
sI346
I3
sI347
I1
sI348
I3
sI349
I2
sI350
I5
sI351
I2
sI352
I5
sI353
I1
sI354
I2
sI355
I5
sI356
I1
sI357
I2
sI358
I2
sI359
I1
sI360
I2
sI361
I3
sI362
I3
sI363
I3
sI364
I1
sI365
I4
sI366
I1
sI367
I3
sI368
I3
sI370
I2
sI371
I4
sI372
I2
sI373
I3
sI374
I5
sI375
I4
sI376
I3
sI377
I2
sI378
I3
sI379
I4
sI380
I3
sI381
I5
sI382
I1
sI383
I3
sI385
I2
sI386
I4
sI387
I5
sI388
I4
sI389
I1
sI390
I2
sI391
I3
sI392
I6
sI393
I3
sI394
I3
sI395
I3
sI396
I1
sI397
I4
sI398
I4
sI399
I5
sI400
I3
sI401
I1
sI402
I3
sI403
I4
sI404
I2
sI405
I4
sI406
I3
sI407
I3
sI408
I2
sI409
I4
sI410
I4
sI411
I5
sI412
I3
sI413
I3
sI414
I3
sI416
I3
sI417
I4
sI418
I4
sI419
I8
sI420
I8
sI422
I5
sI423
I3
sI424
I4
sI425
I6
sI426
I8
sI427
I2
sI428
I1
sI429
I3
sI430
I2
sI431
I5
sI432
I3
sI433
I6
sI434
I4
sI435
I8
sI436
I5
sI437
I3
sI438
I6
sI439
I5
sI440
I2
sI441
I2
sI442
I4
sI443
I2
sI444
I5
sI445
I2
sI446
I2
sI447
I8
sI448
I3
sI449
I1
sI450
I2
sI451
I4
sI452
I4
sI453
I4
sI454
I1
sI455
I6
sI456
I3
sI457
I4
sI458
I5
sI459
I2
sI460
I1
sI461
I5
sI462
I6
sI463
I5
sI464
I3
sI465
I2
sI466
I2
sI467
I5
sI468
I3
sI469
I4
sI470
I5
sI471
I9
sI472
I5
sI473
I6
sI474
I6
sI475
I2
sI476
I6
sI477
I2
sI478
I11
sI479
I10
sI480
I4
sI481
I3
sI482
I2
sI483
I5
sI484
I7
sI485
I7
sI486
I7
sI487
I6
sI488
I4
sI489
I6
sI490
I6
sI491
I8
sI492
I4
sI493
I7
sI494
I7
sI495
I6
sI496
I5
sI497
I8
sI498
I2
sI499
I3
sI500
I2
sI501
I3
sI502
I4
sI503
I5
sI504
I3
sI505
I9
sI506
I5
sI507
I5
sI508
I7
sI509
I5
sI510
I5
sI511
I9
sI512
I3
sI513
I5
sI514
I5
sI515
I7
sI516
I7
sI517
I6
sI518
I3
sI519
I8
sI520
I6
sI521
I4
sI522
I5
sI523
I9
sI524
I3
sI525
I5
sI526
I2
sI527
I4
sI528
I1
sI529
I3
sI530
I7
sI531
I10
sI532
I4
sI533
I3
sI534
I6
sI535
I6
sI536
I4
sI537
I6
sI538
I3
sI539
I5
sI540
I8
sI541
I5
sI542
I10
sI543
I10
sI544
I10
sI545
I2
sI546
I8
sI547
I9
sI548
I7
sI549
I3
sI550
I5
sI551
I2
sI552
I5
sI553
I5
sI554
I6
sI555
I6
sI556
I3
sI557
I8
sI558
I5
sI559
I9
sI560
I4
sI561
I6
sI562
I4
sI563
I3
sI564
I4
sI565
I9
sI566
I3
sI567
I7
sI568
I6
sI569
I4
sI570
I7
sI571
I6
sI572
I5
sI573
I6
sI574
I9
sI576
I5
sI577
I6
sI578
I5
sI579
I11
sI580
I4
sI581
I5
sI582
I6
sI583
I6
sI584
I8
sI585
I7
sI586
I3
sI587
I6
sI588
I3
sI589
I8
sI590
I6
sI591
I9
sI592
I2
sI593
I8
sI594
I6
sI595
I10
sI596
I7
sI597
I7
sI598
I9
sI599
I4
sI600
I9
sI601
I5
sI602
I7
sI603
I5
sI604
I9
sI605
I8
sI606
I6
sI607
I5
sI608
I7
sI609
I4
sI610
I11
sI611
I9
sI612
I4
sI613
I8
sI614
I4
sI615
I6
sI616
I3
sI617
I6
sI618
I3
sI619
I9
sI620
I4
sI621
I5
sI622
I3
sI623
I8
sI624
I5
sI625
I5
sI626
I8
sI627
I5
sI628
I8
sI629
I7
sI630
I7
sI631
I2
sI632
I9
sI633
I4
sI634
I5
sI635
I11
sI636
I2
sI637
I3
sI638
I4
sI639
I4
sI640
I8
sI641
I6
sI642
I5
sI643
I13
sI644
I5
sI645
I10
sI646
I7
sI647
I3
sI648
I8
sI649
I4
sI650
I5
sI651
I8
sI652
I4
sI653
I8
sI654
I8
sI655
I11
sI656
I3
sI657
I9
sI658
I3
sI659
I6
sI660
I14
sI661
I10
sI662
I7
sI663
I7
sI664
I12
sI665
I5
sI666
I9
sI667
I6
sI668
I10
sI669
I9
sI670
I9
sI671
I9
sI672
I10
sI673
I6
sI674
I6
sI675
I10
sI676
I3
sI677
I2
sI678
I4
sI679
I4
sI680
I5
sI681
I4
sI682
I9
sI683
I3
sI684
I5
sI685
I4
sI686
I9
sI687
I8
sI688
I6
sI689
I7
sI690
I9
sI691
I4
sI692
I10
sI693
I3
sI694
I7
sI695
I4
sI696
I4
sI697
I10
sI698
I7
sI699
I9
sI700
I7
sI701
I9
sI702
I6
sI703
I5
sI704
I7
sI705
I7
sI706
I5
sI707
I11
sI708
I8
sI709
I3
sI710
I4
sI711
I8
sI712
I8
sI713
I8
sI714
I10
sI715
I7
sI716
I6
sI717
I9
sI718
I10
sI719
I14
sI720
I5
sI721
I8
sI722
I6
sI723
I5
sI724
I8
sI725
I8
sI726
I5
sI727
I12
sI728
I9
sI729
I9
sI730
I10
sI731
I8
sI732
I10
sI733
I7
sI734
I7
sI735
I10
sI736
I11
sI737
I7
sI738
I5
sI739
I4
sI740
I2
sI741
I6
sI742
I10
sI743
I5
sI744
I3
sI745
I6
sI746
I5
sI747
I6
sI748
I7
sI749
I12
sI750
I8
sI751
I3
sI752
I8
sI753
I10
sI754
I5
sI755
I8
sI756
I6
sI757
I6
sI758
I5
sI759
I6
sI760
I11
sI761
I1
sI762
I10
sI763
I6
sI764
I4
sI765
I5
sI766
I5
sI767
I7
sI768
I3
sI769
I7
sI770
I6
sI771
I6
sI772
I9
sI773
I3
sI774
I6
sI775
I6
sI776
I6
sI777
I4
sI778
I6
sI779
I7
sI780
I5
sI781
I6
sI782
I7
sI783
I6
sI784
I4
sI785
I4
sI786
I7
sI787
I2
sI788
I8
sI789
I11
sI790
I11
sI791
I7
sI792
I8
sI793
I8
sI794
I11
sI795
I5
sI796
I4
sI797
I9
sI798
I7
sI799
I4
sI800
I11
sI801
I5
sI802
I12
sI803
I3
sI804
I8
sI805
I9
sI806
I5
sI807
I3
sI808
I7
sI809
I8
sI810
I7
sI811
I5
sI812
I3
sI813
I2
sI814
I5
sI815
I7
sI816
I3
sI817
I6
sI818
I11
sI819
I4
sI820
I11
sI821
I6
sI822
I11
sI823
I8
sI824
I10
sI825
I4
sI826
I4
sI827
I11
sI828
I6
sI829
I4
sI830
I8
sI831
I4
sI832
I4
sI833
I6
sI834
I4
sI835
I4
sI836
I5
sI837
I6
sI838
I4
sI839
I13
sI840
I3
sI841
I8
sI842
I10
sI843
I6
sI844
I5
sI845
I7
sI846
I5
sI847
I7
sI848
I4
sI849
I4
sI850
I3
sI851
I10
sI852
I7
sI853
I10
sI854
I7
sI855
I10
sI856
I6
sI857
I4
sI858
I9
sI859
I7
sI860
I12
sI861
I4
sI862
I5
sI863
I5
sI864
I7
sI865
I4
sI866
I8
sI867
I2
sI868
I6
sI869
I5
sI870
I4
sI871
I6
sI872
I8
sI873
I9
sI874
I5
sI875
I7
sI876
I2
sI877
I5
sI878
I4
sI879
I3
sI880
I4
sI881
I7
sI882
I8
sI883
I2
sI884
I7
sI885
I7
sI886
I8
sI887
I4
sI888
I5
sI890
I6
sI891
I7
sI892
I6
sI893
I7
sI894
I9
sI895
I10
sI896
I4
sI897
I4
sI898
I4
sI899
I7
sI900
I3
sI901
I4
sI902
I3
sI903
I4
sI904
I9
sI905
I3
sI906
I3
sI907
I4
sI908
I7
sI909
I7
sI910
I2
sI911
I9
sI912
I3
sI913
I7
sI914
I6
sI915
I10
sI916
I3
sI917
I7
sI918
I6
sI919
I8
sI920
I4
sI921
I5
sI922
I7
sI923
I6
sI924
I6
sI925
I5
sI926
I3
sI927
I1
sI928
I3
sI929
I8
sI930
I8
sI931
I6
sI932
I9
sI933
I4
sI934
I5
sI935
I4
sI936
I5
sI937
I6
sI938
I4
sI939
I7
sI940
I3
sI941
I7
sI942
I2
sI943
I1
sI944
I1
sI945
I1
sI946
I3
sI947
I2
sI948
I2
sI949
I1
sI950
I5
sI951
I3
sI952
I10
sI953
I5
sI954
I2
sI955
I12
sI956
I7
sI957
I3
sI958
I4
sI959
I7
sI960
I5
sI961
I5
sI962
I7
sI963
I4
sI964
I5
sI965
I5
sI966
I7
sI967
I5
sI968
I5
sI969
I7
sI970
I10
sI971
I7
sI972
I5
sI973
I9
sI974
I7
sI975
I4
sI976
I4
sI977
I4
sI978
I6
sI979
I6
sI980
I4
sI981
I4
sI982
I4
sI983
I5
sI984
I6
sI985
I8
sI986
I4
sI987
I2
sI988
I6
sI989
I1
sI990
I9
sI991
I6
sI992
I2
sI993
I3
sI994
I3
sI995
I2
sI996
I5
sI997
I8
sI998
I4
sI999
I6
sI1000
I2
sI1001
I6
sI1002
I5
sI1003
I9
sI1004
I1
sI1005
I5
sI1006
I3
sI1007
I3
sI1008
I3
sI1009
I9
sI1010
I10
sI1011
I10
sI1012
I7
sI1013
I7
sI1014
I4
sI1015
I6
sI1016
I5
sI1017
I5
sI1018
I3
sI1019
I3
sI1020
I6
sI1021
I6
sI1022
I5
sI1023
I4
sI1024
I3
sI1025
I3
sI1027
I1
sI1028
I4
sI1029
I3
sI1030
I5
sI1031
I4
sI1032
I2
sI1033
I5
sI1034
I4
sI1035
I4
sI1036
I1
sI1037
I1
sI1038
I3
sI1039
I3
sI1040
I4
sI1041
I5
sI1042
I3
sI1043
I7
sI1044
I1
sI1045
I1
sI1046
I2
sI1047
I2
sI1048
I4
sI1049
I6
sI1050
I7
sI1051
I4
sI1052
I3
sI1053
I1
sI1054
I4
sI1055
I4
sI1056
I3
sI1058
I3
sI1059
I2
sI1060
I1
sI1061
I2
sI1062
I6
sI1063
I3
sI1064
I5
sI1065
I8
sI1066
I3
sI1067
I4
sI1068
I2
sI1069
I3
sI1070
I5
sI1071
I1
sI1072
I3
sI1073
I5
sI1074
I1
sI1075
I2
sI1076
I6
sI1077
I5
sI1078
I8
sI1079
I9
sI1080
I6
sI1081
I2
sI1082
I5
sI1083
I4
sI1084
I2
sI1085
I4
sI1086
I5
sI1087
I9
sI1088
I5
sI1089
I4
sI1090
I8
sI1091
I5
sI1092
I4
sI1093
I5
sI1094
I4
sI1095
I2
sI1096
I4
sI1097
I5
sI1098
I5
sI1099
I2
sI1100
I6
sI1101
I8
sI1102
I5
sI1103
I4
sI1104
I5
sI1105
I4
sI1106
I5
sI1107
I5
sI1108
I6
sI1109
I3
sI1110
I5
sI1111
I9
sI1112
I5
sI1113
I7
sI1114
I3
sI1115
I3
sI1116
I4
sI1117
I6
sI1118
I2
sI1119
I3
sI1120
I4
sI1121
I3
sI1122
I6
sI1123
I4
sI1125
I3
sI1126
I3
sI1127
I5
sI1128
I2
sI1129
I2
sI1130
I8
sI1131
I3
sI1132
I5
sI1133
I3
sI1134
I4
sI1135
I3
sI1136
I5
sI1137
I3
sI1138
I4
sI1139
I2
sI1140
I3
sI1141
I7
sI1142
I2
sI1143
I3
sI1144
I2
sI1145
I4
sI1146
I9
sI1147
I2
sI1148
I2
sI1149
I6
sI1150
I1
sI1151
I2
sI1152
I7
sI1153
I3
sI1154
I7
sI1155
I4
sI1156
I3
sI1157
I7
sI1158
I2
sI1159
I2
sI1160
I4
sI1161
I3
sI1163
I3
sI1164
I2
sI1165
I4
sI1166
I3
sI1167
I1
sI1168
I5
sI1169
I4
sI1170
I2
sI1171
I3
sI1172
I3
sI1173
I4
sI1174
I5
sI1175
I5
sI1176
I4
sI1177
I3
sI1178
I3
sI1179
I4
sI1180
I3
sI1181
I3
sI1182
I3
sI1183
I4
sI1184
I4
sI1185
I5
sI1186
I1
sI1187
I3
sI1188
I3
sI1189
I3
sI1190
I2
sI1191
I2
sI1192
I4
sI1193
I4
sI1194
I2
sI1195
I2
sI1196
I5
sI1198
I2
sI1199
I1
sI1200
I1
sI1201
I4
sI1202
I4
sI1203
I4
sI1204
I3
sI1205
I6
sI1206
I4
sI1207
I1
sI1208
I2
sI1209
I2
sI1210
I6
sI1211
I1
sI1212
I4
sI1213
I2
sI1214
I5
sI1215
I6
sI1216
I2
sI1217
I4
sI1218
I6
sI1219
I2
sI1220
I2
sI1221
I2
sI1222
I2
sI1223
I3
sI1224
I2
sI1225
I1
sI1226
I4
sI1227
I1
sI1228
I3
sI1229
I2
sI1230
I4
sI1231
I1
sI1232
I2
sI1233
I1
sI1234
I2
sI1235
I4
sI1236
I3
sI1237
I5
sI1238
I3
sI1239
I5
sI1240
I4
sI1241
I4
sI1242
I3
sI1243
I3
sI1244
I1
sI1245
I3
sI1246
I3
sI1247
I3
sI1248
I2
sI1249
I5
sI1250
I4
sI1251
I2
sI1252
I6
sI1253
I3
sI1254
I4
sI1255
I5
sI1256
I2
sI1257
I1
sI1258
I7
sI1259
I1
sI1260
I1
sI1261
I2
sI1262
I7
sI1263
I5
sI1264
I2
sI1265
I3
sI1266
I3
sI1268
I6
sI1269
I3
sI1270
I2
sI1271
I3
sI1272
I6
sI1273
I3
sI1274
I4
sI1275
I3
sI1276
I1
sI1277
I4
sI1278
I1
sI1279
I5
sI1280
I4
sI1281
I6
sI1282
I2
sI1283
I6
sI1284
I3
sI1285
I4
sI1286
I5
sI1288
I4
sI1289
I4
sI1290
I2
sI1291
I4
sI1292
I2
sI1293
I2
sI1294
I7
sI1295
I5
sI1296
I4
sI1297
I7
sI1299
I3
sI1300
I2
sI1301
I5
sI1302
I4
sI1303
I4
sI1304
I2
sI1305
I6
sI1306
I2
sI1307
I2
sI1308
I1
sI1309
I2
sI1310
I1
sI1312
I2
sI1313
I1
sI1315
I2
sI1316
I2
sI1317
I1
sI1318
I4
sI1319
I3
sI1322
I1
sI1323
I2
sI1324
I2
sI1325
I1
sI1326
I1
sI1327
I2
sI1328
I7
sI1329
I3
sI1330
I4
sI1331
I2
sI1332
I3
sI1333
I1
sI1334
I1
sI1335
I3
sI1336
I3
sI1337
I2
sI1338
I2
sI1339
I3
sI1340
I4
sI1341
I3
sI1342
I3
sI1344
I3
sI1345
I3
sI1346
I6
sI1347
I1
sI1348
I1
sI1349
I1
sI1350
I3
sI1351
I3
sI1352
I6
sI1353
I7
sI1354
I3
sI1355
I2
sI1356
I1
sI1357
I2
sI1358
I4
sI1359
I2
sI1360
I3
sI1361
I3
sI1362
I1
sI1363
I2
sI1365
I1
sI1366
I3
sI1367
I2
sI1368
I1
sI1369
I1
sI1371
I3
sI1372
I3
sI1373
I1
sI1374
I1
sI1376
I2
sI1377
I2
sI1378
I2
sI1379
I6
sI1380
I1
sI1381
I1
sI1382
I3
sI1383
I2
sI1384
I1
sI1386
I2
sI1387
I4
sI1388
I3
sI1389
I4
sI1390
I1
sI1391
I2
sI1392
I1
sI1393
I1
sI1394
I1
sI1395
I3
sI1396
I5
sI1397
I3
sI1398
I3
sI1399
I8
sI1400
I3
sI1401
I1
sI1403
I1
sI1404
I3
sI1406
I1
sI1407
I2
sI1408
I1
sI1409
I2
sI1410
I2
sI1411
I5
sI1412
I1
sI1413
I5
sI1414
I2
sI1415
I3
sI1416
I4
sI1417
I3
sI1418
I2
sI1419
I2
sI1420
I1
sI1423
I4
sI1426
I1
sI1429
I1
sI1430
I7
sI1431
I1
sI1432
I6
sI1433
I1
sI1434
I2
sI1435
I1
sI1436
I3
sI1437
I2
sI1438
I2
sI1439
I1
sI1440
I3
sI1441
I3
sI1442
I1
sI1443
I1
sI1444
I1
sI1445
I3
sI1446
I4
sI1447
I1
sI1448
I3
sI1449
I2
sI1450
I1
sI1451
I3
sI1452
I1
sI1455
I3
sI1457
I1
sI1459
I3
sI1460
I3
sI1461
I2
sI1462
I2
sI1463
I2
sI1465
I3
sI1466
I1
sI1467
I5
sI1469
I2
sI1470
I1
sI1471
I2
sI1473
I1
sI1475
I1
sI1476
I2
sI1477
I2
sI1478
I1
sI1479
I2
sI1480
I1
sI1481
I3
sI1482
I3
sI1483
I1
sI1484
I2
sI1485
I1
sI1486
I1
sI1487
I4
sI1488
I3
sI1489
I3
sI1490
I1
sI1492
I3
sI1495
I1
sI1496
I2
sI1498
I3
sI1500
I2
sI1501
I2
sI1502
I1
sI1503
I1
sI1505
I2
sI1507
I3
sI1509
I1
sI1511
I2
sI1512
I3
sI1513
I4
sI1514
I2
sI1515
I2
sI1516
I2
sI1517
I1
sI1519
I2
sI1520
I2
sI1521
I3
sI1522
I3
sI1523
I1
sI1524
I4
sI1525
I3
sI1526
I3
sI1528
I1
sI1529
I1
sI1530
I3
sI1532
I2
sI1533
I2
sI1534
I1
sI1535
I1
sI1536
I1
sI1537
I3
sI1538
I1
sI1539
I1
sI1540
I3
sI1541
I2
sI1542
I2
sI1543
I3
sI1545
I2
sI1546
I3
sI1550
I1
sI1551
I1
sI1554
I2
sI1556
I1
sI1557
I2
sI1558
I2
sI1560
I1
sI1561
I1
sI1562
I3
sI1563
I1
sI1565
I1
sI1566
I2
sI1567
I2
sI1568
I1
sI1569
I5
sI1570
I1
sI1571
I1
sI1572
I1
sI1573
I2
sI1574
I1
sI1575
I1
sI1576
I1
sI1577
I3
sI1578
I5
sI1580
I2
sI1581
I1
sI1582
I2
sI1584
I3
sI1585
I1
sI1587
I2
sI1589
I1
sI1590
I2
sI1594
I4
sI1595
I1
sI1596
I1
sI1598
I1
sI1600
I2
sI1601
I2
sI1603
I2
sI1605
I2
sI1606
I1
sI1607
I1
sI1608
I2
sI1611
I3
sI1614
I1
sI1616
I2
sI1619
I1
sI1620
I1
sI1622
I1
sI1623
I2
sI1624
I1
sI1626
I2
sI1631
I1
sI1633
I1
sI1634
I2
sI1635
I1
sI1639
I2
sI1640
I2
sI1641
I1
sI1643
I2
sI1645
I1
sI1646
I1
sI1649
I2
sI1650
I1
sI1652
I3
sI1653
I1
sI1655
I5
sI1657
I1
sI1660
I1
sI1662
I1
sI1663
I1
sI1667
I3
sI1668
I2
sI1669
I1
sI1670
I1
sI1671
I1
sI1673
I1
sI1675
I2
sI1676
I1
sI1680
I3
sI1681
I2
sI1684
I1
sI1693
I2
sI1697
I1
sI1700
I2
sI1703
I1
sI1705
I2
sI1709
I2
sI1710
I1
sI1711
I2
sI1713
I1
sI1714
I1
sI1715
I2
sI1717
I1
sI1718
I1
sI1719
I1
sI1720
I1
sI1721
I1
sI1722
I1
sI1723
I1
sI1725
I1
sI1726
I1
sI1730
I1
sI1731
I3
sI1734
I1
sI1736
I1
sI1739
I1
sI1740
I1
sI1743
I2
sI1744
I1
sI1750
I2
sI1753
I2
sI1754
I1
sI1756
I2
sI1757
I1
sI1758
I1
sI1762
I3
sI1763
I2
sI1765
I2
sI1766
I1
sI1767
I2
sI1768
I1
sI1770
I1
sI1771
I2
sI1773
I1
sI1777
I1
sI1778
I1
sI1779
I1
sI1785
I1
sI1788
I2
sI1790
I1
sI1797
I1
sI1798
I1
sI1799
I1
sI1808
I1
sI1809
I2
sI1810
I1
sI1812
I2
sI1815
I1
sI1818
I2
sI1821
I1
sI1824
I3
sI1826
I1
sI1827
I1
sI1829
I1
sI1830
I2
sI1833
I1
sI1838
I1
sI1839
I1
sI1841
I2
sI1842
I3
sI1844
I1
sI1848
I1
sI1849
I2
sI1851
I2
sI1852
I1
sI1855
I1
sI1859
I1
sI1860
I2
sI1868
I1
sI1869
I1
sI1870
I1
sI1875
I1
sI1880
I1
sI1881
I1
sI1890
I2
sI1891
I1
sI1892
I1
sI1895
I1
sI1896
I1
sI1897
I1
sI1900
I1
sI1908
I1
sI1914
I2
sI1915
I1
sI1919
I1
sI1920
I3
sI1926
I1
sI1930
I1
sI1931
I1
sI1933
I1
sI1936
I1
sI1937
I1
sI1949
I1
sI1952
I1
sI1954
I1
sI1955
I1
sI1964
I1
sI1966
I1
sI1967
I1
sI1971
I1
sI1974
I1
sI1975
I1
sI1977
I3
sI1980
I1
sI1985
I1
sI1988
I2
sI1990
I1
sI1992
I1
sI1994
I2
sI1999
I1
sI2000
I1
sI2006
I1
sI2007
I1
sI2010
I2
sI2013
I1
sI2016
I1
sI2020
I1
sI2022
I1
sI2025
I1
sI2036
I1
sI2037
I1
sI2038
I1
sI2040
I1
sI2042
I1
sI2045
I1
sI2047
I1
sI2048
I1
sI2051
I2
sI2071
I1
sI2072
I1
sI2074
I1
sI2075
I1
sI2076
I1
sI2080
I1
sI2086
I1
sI2088
I1
sI2096
I1
sI2099
I1
sI2104
I1
sI2108
I1
sI2114
I1
sI2118
I1
sI2123
I1
sI2162
I1
sI2163
I1
sI2172
I1
sI2173
I1
sI2175
I1
sI2200
I1
sI2204
I1
sI2210
I2
sI2216
I1
sI2217
I1
sI2218
I1
sI2237
I1
sI2241
I1
sI2273
I1
sI2287
I1
sI2325
I1
sI2331
I1
sI2342
I1
sI2343
I1
sI2416
I1
sI2424
I1
sI2434
I1
sI2436
I1
sI2495
I1
sI2529
I1
sI2576
I1
sI2579
I1
sI2699
I1
sI2700
I1
sI2703
I1
stp79
Rp80
(dp81
g17
I5835
sg25
Nsg26
Nsg27
Nsbsg28
I2049
sg29
F6859.5
sbs(I01
g30
tp82
g0
(g12
g2
Ntp83
Rp84
(dp85
g16
F0.5
sg17
I38489
sg18
g0
(g19
g20
(dp86
I0
I3477
sI1
I5032
sI2
I5826
sI3
I5623
sI4
I4760
sI5
I3918
sI6
I2899
sI7
I2040
sI8
I1488
sI9
I1055
sI10
I743
sI11
I481
sI12
I335
sI13
I229
sI14
I151
sI15
I125
sI16
I71
sI17
I60
sI18
I47
sI19
I34
sI20
I21
sI21
I15
sI22
I14
sI23
I15
sI24
I11
sI25
I5
sI26
I5
sI27
I1
sI28
I2
sI29
I4
sI30
I1
sI36
I1
stp87
Rp88
(dp89
g17
I38489
sg25
Nsg26
Nsg27
Nsbsg28
I33
sg29
F38505.5
sbs(I00
g65
tp90
g0
(g12
g2
Ntp91
Rp92
(dp93
g16
F0.5
sg17
I5835
sg18
g0
(g19
g20
(dp94
I0
I5805
sI1
I27
sI2
I2
sI3
I1
stp95
Rp96
(dp97
g17
I5835
sg25
Nsg26
Nsg27
Nsbsg28
I17
sg29
F5843.5
sbs(I00
g10
tp98
g0
(g12
g2
Ntp99
Rp100
(dp101
g16
F0.5
sg17
I5835
sg18
g0
(g19
g20
(dp102
I0
I193
sI1
I361
sI2
I144
sI3
I148
sI4
I167
sI5
I180
sI6
I170
sI7
I191
sI8
I173
sI9
I182
sI10
I177
sI11
I166
sI12
I172
sI13
I154
sI14
I147
sI15
I177
sI16
I159
sI17
I143
sI18
I134
sI19
I117
sI20
I124
sI21
I123
sI22
I115
sI23
I112
sI24
I110
sI25
I112
sI26
I92
sI27
I96
sI28
I77
sI29
I82
sI30
I83
sI31
I80
sI32
I66
sI33
I57
sI34
I55
sI35
I65
sI36
I50
sI37
I53
sI38
I54
sI39
I58
sI40
I53
sI41
I37
sI42
I30
sI43
I32
sI44
I24
sI45
I27
sI46
I30
sI47
I27
sI48
I24
sI49
I25
sI50
I14
sI51
I24
sI52
I18
sI53
I11
sI54
I18
sI55
I13
sI56
I12
sI57
I9
sI58
I11
sI59
I16
sI60
I10
sI61
I17
sI62
I6
sI63
I14
sI64
I16
sI65
I4
sI66
I12
sI67
I7
sI68
I17
sI69
I9
sI70
I13
sI71
I6
sI72
I5
sI73
I2
sI74
I9
sI75
I7
sI76
I1
sI77
I7
sI78
I1
sI79
I1
sI80
I3
sI81
I1
sI82
I4
sI85
I3
sI86
I4
sI88
I2
sI89
I1
sI90
I4
sI91
I4
sI92
I3
sI93
I1
sI94
I1
sI95
I4
sI96
I3
sI98
I2
sI99
I1
sI100
I1
sI101
I1
sI102
I1
sI103
I1
sI104
I2
sI105
I3
sI107
I1
sI110
I2
sI113
I2
sI114
I1
sI115
I1
sI116
I1
sI117
I1
sI119
I1
sI120
I1
sI121
I2
sI124
I2
sI125
I1
sI126
I1
sI127
I1
sI128
I1
sI129
I1
sI130
I1
sI131
I2
sI132
I1
sI134
I1
sI136
I1
sI137
I1
sI148
I1
sI150
I1
sI154
I1
sI155
I2
sI157
I1
sI158
I1
sI163
I1
sI166
I1
sI170
I2
sI173
I1
sI177
I1
sI181
I1
sI182
I1
sI194
I1
sI216
I1
sI226
I1
sI231
I1
sI278
I1
stp103
Rp104
(dp105
g17
I5835
sg25
Nsg26
Nsg27
Nsbsg28
I145
sg29
F5907.5
sbssS'_label_probdist'
p106
g0
(g12
g2
Ntp107
Rp108
(dp109
g16
F0.5
sg17
I44324
sg18
g0
(g19
g20
(dp110
I00
I5835
sI01
I38489
stp111
Rp112
(dp113
g17
I44324
sg25
Nsg26
(lp114
(I01
I38489
tp115
a(I00
I5835
tp116
asg27
Nsbsg28
I2
sg29
F44325.0
sbsb.